; Function Attrs: mustprogress uwtable
define dso_local void @_ZN8V3Config14addIgnoreMatchE11V3ErrorCodeRKNSt7__cxx1112basic_stringIcSt11char_traitsIcESaIcEEES8_(i8 %0, ptr noundef nonnull align 8 dereferenceable(32) %1, ptr noundef nonnull align 8 dereferenceable(32) %2) local_unnamed_addr #3 align 2 {
  %4 = alloca %class.V3ErrorCode, align 1
  %5 = load atomic i8, ptr @_ZGVZN16V3ConfigResolver1sEvE11s_singleton acquire, align 8
  %6 = icmp eq i8 %5, 0
  br i1 %6, label %7, label %_ZN16V3ConfigResolver1sEv.exit, !prof !5

7:                                                ; preds = %3
  %8 = tail call i32 @__cxa_guard_acquire(ptr nonnull @_ZGVZN16V3ConfigResolver1sEvE11s_singleton) #18
  %.not.i = icmp eq i32 %8, 0
  br i1 %.not.i, label %_ZN16V3ConfigResolver1sEv.exit, label %9

9:                                                ; preds = %7
  tail call void @_ZN16V3ConfigResolverC2Ev(ptr noundef nonnull align 8 dereferenceable(408) @_ZZN16V3ConfigResolver1sEvE11s_singleton) #18
  %10 = tail call i32 @__cxa_atexit(ptr nonnull @_ZN16V3ConfigResolverD2Ev, ptr nonnull @_ZZN16V3ConfigResolver1sEvE11s_singleton, ptr nonnull @__dso_handle) #18
  tail call void @__cxa_guard_release(ptr nonnull @_ZGVZN16V3ConfigResolver1sEvE11s_singleton) #18
  br label %_ZN16V3ConfigResolver1sEv.exit

_ZN16V3ConfigResolver1sEv.exit:                   ; preds = %3, %7, %9
  %11 = tail call noundef nonnull align 8 dereferenceable(136) ptr @_ZN24V3ConfigWildcardResolverI12V3ConfigFileE2atERKNSt7__cxx1112basic_stringIcSt11char_traitsIcESaIcEEE(ptr noundef nonnull align 8 dereferenceable(136) getelementptr inbounds (%class.V3ConfigResolver, ptr @_ZZN16V3ConfigResolver1sEvE11s_singleton, i64 0, i32 1, i32 0, i32 0, i32 0, i32 0, i32 0, i32 0), ptr noundef nonnull align 8 dereferenceable(32) %1)
  call void @llvm.lifetime.start.p0(i64 1, ptr nonnull %4)
  store i8 %0, ptr %4, align 1
  %12 = getelementptr inbounds i8, ptr %11, i64 104
  %13 = load ptr, ptr %12, align 8
  %14 = getelementptr inbounds i8, ptr %11, i64 112
  %15 = load ptr, ptr %14, align 8
  %.not.i.i = icmp eq ptr %13, %15
  br i1 %.not.i.i, label %20, label %16

16:                                               ; preds = %_ZN16V3ConfigResolver1sEv.exit
  store i8 %0, ptr %13, align 8
  %17 = getelementptr inbounds i8, ptr %13, i64 8
  tail call void @_ZNSt7__cxx1112basic_stringIcSt11char_traitsIcESaIcEEC1ERKS4_(ptr noundef nonnull align 8 dereferenceable(32) %17, ptr noundef nonnull align 8 dereferenceable(32) %2)
  %18 = load ptr, ptr %12, align 8
  %19 = getelementptr inbounds i8, ptr %18, i64 40
  store ptr %19, ptr %12, align 8
  br label %_ZN12V3ConfigFile14addIgnoreMatchE11V3ErrorCodeRKNSt7__cxx1112basic_stringIcSt11char_traitsIcESaIcEEE.exit

20:                                               ; preds = %_ZN16V3ConfigResolver1sEv.exit
  %21 = getelementptr inbounds i8, ptr %11, i64 96
  call void @_ZNSt6vectorISt4pairI11V3ErrorCodeNSt7__cxx1112basic_stringIcSt11char_traitsIcESaIcEEEESaIS8_EE17_M_realloc_insertIJRS1_RKS7_EEEvN9__gnu_cxx17__normal_iteratorIPS8_SA_EEDpOT_(ptr noundef nonnull align 8 dereferenceable(24) %21, ptr %13, ptr noundef nonnull align 1 dereferenceable(1) %4, ptr noundef nonnull align 8 dereferenceable(32) %2)
  br label %_ZN12V3ConfigFile14addIgnoreMatchE11V3ErrorCodeRKNSt7__cxx1112basic_stringIcSt11char_traitsIcESaIcEEE.exit

_ZN12V3ConfigFile14addIgnoreMatchE11V3ErrorCodeRKNSt7__cxx1112basic_stringIcSt11char_traitsIcESaIcEEE.exit: ; preds = %16, %20
  call void @llvm.lifetime.end.p0(i64 1, ptr nonnull %4)
  ret void
}